target datalayout = "e-m:e-p270:32:32-p271:32:32-p272:64:64-i64:64-i128:128-f80:128-n8:16:32:64-S128"
target triple = "x86_64-pc-linux-gnu"

%struct.KRB5KDF_CTX = type { ptr, %struct.PROV_CIPHER, ptr, i64, ptr, i64 }
%struct.PROV_CIPHER = type { ptr, ptr, ptr }

@.str.5 = private unnamed_addr constant [5 x i8] c"size\00", align 1

; Function Attrs: nounwind uwtable
define internal i32 @krb5kdf_get_ctx_params(ptr noundef %0, ptr noundef %1) #0 {
  %3 = alloca i32, align 4
  %4 = alloca ptr, align 8
  %5 = alloca ptr, align 8
  %6 = alloca ptr, align 8
  %7 = alloca ptr, align 8
  %8 = alloca i64, align 8
  %9 = alloca ptr, align 8
  %10 = alloca i32, align 4
  store ptr %0, ptr %4, align 8, !tbaa !3
  store ptr %1, ptr %5, align 8, !tbaa !20
  call void @llvm.lifetime.start.p0(i64 8, ptr %6) #6
  %11 = load ptr, ptr %4, align 8, !tbaa !3
  store ptr %11, ptr %6, align 8, !tbaa !3
  call void @llvm.lifetime.start.p0(i64 8, ptr %7) #6
  call void @llvm.lifetime.start.p0(i64 8, ptr %8) #6
  call void @llvm.lifetime.start.p0(i64 8, ptr %9) #6
  %12 = load ptr, ptr %6, align 8, !tbaa !3
  %13 = getelementptr inbounds nuw %struct.KRB5KDF_CTX, ptr %12, i32 0, i32 1
  %14 = call ptr @ossl_prov_cipher_cipher(ptr noundef %13)
  store ptr %14, ptr %7, align 8, !tbaa !22
  %15 = load ptr, ptr %7, align 8, !tbaa !22
  %16 = icmp ne ptr %15, null
  br i1 %16, label %17, label %21

17:                                               ; preds = %2
  %18 = load ptr, ptr %7, align 8, !tbaa !22
  %19 = call i32 @EVP_CIPHER_get_key_length(ptr noundef %18)
  %20 = sext i32 %19 to i64
  store i64 %20, ptr %8, align 8, !tbaa !19
  br label %22

21:                                               ; preds = %2
  store i64 64, ptr %8, align 8, !tbaa !19
  br label %22

22:                                               ; preds = %21, %17
  %23 = load ptr, ptr %5, align 8, !tbaa !20
  %24 = call ptr @OSSL_PARAM_locate(ptr noundef %23, ptr noundef @.str.5)
  store ptr %24, ptr %9, align 8, !tbaa !20
  %25 = icmp ne ptr %24, null
  br i1 %25, label %26, label %30

26:                                               ; preds = %22
  %27 = load ptr, ptr %9, align 8, !tbaa !20
  %28 = load i64, ptr %8, align 8, !tbaa !19
  %29 = call i32 @OSSL_PARAM_set_size_t(ptr noundef %27, i64 noundef %28)
  store i32 %29, ptr %3, align 4
  store i32 1, ptr %10, align 4
  br label %31

30:                                               ; preds = %22
  store i32 -2, ptr %3, align 4
  store i32 1, ptr %10, align 4
  br label %31

31:                                               ; preds = %30, %26
  call void @llvm.lifetime.end.p0(i64 8, ptr %9) #6
  call void @llvm.lifetime.end.p0(i64 8, ptr %8) #6
  call void @llvm.lifetime.end.p0(i64 8, ptr %7) #6
  call void @llvm.lifetime.end.p0(i64 8, ptr %6) #6
  %32 = load i32, ptr %3, align 4
  ret i32 %32
}