; Function Attrs: nounwind uwtable
define internal i32 @krb5kdf_get_ctx_params(ptr noundef %0, ptr noundef %1) #0 {
  %3 = getelementptr inbounds nuw i8, ptr %0, i64 8
  %4 = tail call ptr @ossl_prov_cipher_cipher(ptr noundef nonnull %3) #7
  %.not = icmp eq ptr %4, null
  br i1 %.not, label %8, label %5

5:                                                ; preds = %2
  %6 = tail call i32 @EVP_CIPHER_get_key_length(ptr noundef nonnull %4) #7
  %7 = sext i32 %6 to i64
  br label %8

8:                                                ; preds = %2, %5
  %.07 = phi i64 [ %7, %5 ], [ 64, %2 ]
  %9 = tail call ptr @OSSL_PARAM_locate(ptr noundef %1, ptr noundef nonnull @.str.5) #7
  %.not10 = icmp eq ptr %9, null
  br i1 %.not10, label %12, label %10

10:                                               ; preds = %8
  %11 = tail call i32 @OSSL_PARAM_set_size_t(ptr noundef nonnull %9, i64 noundef %.07) #7
  br label %12

12:                                               ; preds = %8, %10
  %.0 = phi i32 [ %11, %10 ], [ -2, %8 ]
  ret i32 %.0
}